target datalayout = "e-m:e-p270:32:32-p271:32:32-p272:64:64-i64:64-i128:128-f80:128-n8:16:32:64-S128"
target triple = "x86_64-unknown-linux-gnu"

%struct.ctl_named_node_s = type { %struct.ctl_node_s, ptr, i64, ptr, ptr }
%struct.ctl_node_s = type { i8 }

@ctl_initialized = internal global i8 0, align 1
@super_root_node = internal constant [1 x %struct.ctl_named_node_s] [%struct.ctl_named_node_s { %struct.ctl_node_s { i8 1 }, ptr @.str.1, i64 13, ptr @root_node, ptr null }], align 16

; Function Attrs: nounwind uwtable
define hidden i32 @ctl_nametomib(ptr noundef %tsd, ptr noundef %name, ptr noundef %mibp, ptr noundef %miblenp) #0 {
entry:
  %tsd.addr.i = alloca ptr, align 8
  %tsd.addr = alloca ptr, align 8
  %name.addr = alloca ptr, align 8
  %mibp.addr = alloca ptr, align 8
  %miblenp.addr = alloca ptr, align 8
  %ret = alloca i32, align 4
  store ptr %tsd, ptr %tsd.addr, align 8
  store ptr %name, ptr %name.addr, align 8
  store ptr %mibp, ptr %mibp.addr, align 8
  store ptr %miblenp, ptr %miblenp.addr, align 8
  %0 = load i8, ptr @ctl_initialized, align 1
  %tobool = trunc i8 %0 to i1
  br i1 %tobool, label %if.end, label %land.lhs.true

land.lhs.true:                                    ; preds = %entry
  %1 = load ptr, ptr %tsd.addr, align 8
  %call = call zeroext i1 @ctl_init(ptr noundef %1)
  br i1 %call, label %if.then, label %if.end

if.then:                                          ; preds = %land.lhs.true
  store i32 11, ptr %ret, align 4
  br label %label_return

if.end:                                           ; preds = %land.lhs.true, %entry
  %2 = load ptr, ptr %tsd.addr, align 8
  store ptr %2, ptr %tsd.addr.i, align 8
  %3 = load ptr, ptr %tsd.addr.i, align 8
  %4 = load ptr, ptr %name.addr, align 8
  %5 = load ptr, ptr %mibp.addr, align 8
  %6 = load ptr, ptr %miblenp.addr, align 8
  %call2 = call i32 @ctl_lookup(ptr noundef %3, ptr noundef @super_root_node, ptr noundef %4, ptr noundef null, ptr noundef %5, ptr noundef %6)
  store i32 %call2, ptr %ret, align 4
  br label %label_return

label_return:                                     ; preds = %if.end, %if.then
  %7 = load i32, ptr %ret, align 4
  ret i32 %7
}