; Function Attrs: nounwind uwtable
define hidden noundef i32 @ctl_nametomib(ptr noundef %tsd, ptr noundef %name, ptr noundef %mibp, ptr nocapture noundef %miblenp) local_unnamed_addr #0 {
entry:
  %.b2 = load i1, ptr @ctl_initialized, align 1
  br i1 %.b2, label %if.end, label %land.lhs.true

land.lhs.true:                                    ; preds = %entry
  %call = tail call fastcc zeroext i1 @ctl_init(ptr noundef %tsd)
  br i1 %call, label %label_return, label %if.end

if.end:                                           ; preds = %land.lhs.true, %entry
  %call2 = tail call fastcc i32 @ctl_lookup(ptr noundef %tsd, ptr noundef nonnull @super_root_node, ptr noundef %name, ptr noundef null, ptr noundef %mibp, ptr noundef %miblenp), !range !5
  br label %label_return

label_return:                                     ; preds = %land.lhs.true, %if.end
  %ret.0 = phi i32 [ %call2, %if.end ], [ 11, %land.lhs.true ]
  ret i32 %ret.0
}